target datalayout = "e-m:e-p270:32:32-p271:32:32-p272:64:64-i64:64-i128:128-f80:128-n8:16:32:64-S128"
target triple = "x86_64-pc-linux-gnu"

; Function Attrs: nounwind uwtable
define internal i32 @force(double noundef %0, ptr noundef %1, ptr noundef %2, ptr noundef %3) #0 {
  %5 = alloca double, align 8
  %6 = alloca ptr, align 8
  %7 = alloca ptr, align 8
  %8 = alloca ptr, align 8
  %9 = alloca ptr, align 8
  %10 = alloca ptr, align 8
  %11 = alloca double, align 8
  %12 = alloca double, align 8
  %13 = alloca double, align 8
  store double %0, ptr %5, align 8, !tbaa !27
  store ptr %1, ptr %6, align 8, !tbaa !26
  store ptr %2, ptr %7, align 8, !tbaa !26
  store ptr %3, ptr %8, align 8, !tbaa !33
  call void @llvm.lifetime.start.p0(i64 8, ptr %9) #8
  %14 = load ptr, ptr %6, align 8, !tbaa !26
  %15 = call ptr @N_VGetArrayPointer(ptr noundef %14)
  store ptr %15, ptr %9, align 8, !tbaa !45
  call void @llvm.lifetime.start.p0(i64 8, ptr %10) #8
  %16 = load ptr, ptr %7, align 8, !tbaa !26
  %17 = call ptr @N_VGetArrayPointer(ptr noundef %16)
  store ptr %17, ptr %10, align 8, !tbaa !45
  call void @llvm.lifetime.start.p0(i64 8, ptr %11) #8
  %18 = load ptr, ptr %9, align 8, !tbaa !45
  %19 = getelementptr inbounds double, ptr %18, i64 0
  %20 = load double, ptr %19, align 8, !tbaa !27
  store double %20, ptr %11, align 8, !tbaa !27
  call void @llvm.lifetime.start.p0(i64 8, ptr %12) #8
  %21 = load ptr, ptr %9, align 8, !tbaa !45
  %22 = getelementptr inbounds double, ptr %21, i64 1
  %23 = load double, ptr %22, align 8, !tbaa !27
  store double %23, ptr %12, align 8, !tbaa !27
  call void @llvm.lifetime.start.p0(i64 8, ptr %13) #8
  %24 = load double, ptr %11, align 8, !tbaa !27
  %25 = load double, ptr %11, align 8, !tbaa !27
  %26 = load double, ptr %12, align 8, !tbaa !27
  %27 = load double, ptr %12, align 8, !tbaa !27
  %28 = fmul double %26, %27
  %29 = call double @llvm.fmuladd.f64(double %24, double %25, double %28)
  %30 = fcmp ole double %29, 0.000000e+00
  br i1 %30, label %31, label %32

31:                                               ; preds = %4
  br label %40

32:                                               ; preds = %4
  %33 = load double, ptr %11, align 8, !tbaa !27
  %34 = load double, ptr %11, align 8, !tbaa !27
  %35 = load double, ptr %12, align 8, !tbaa !27
  %36 = load double, ptr %12, align 8, !tbaa !27
  %37 = fmul double %35, %36
  %38 = call double @llvm.fmuladd.f64(double %33, double %34, double %37)
  %39 = call double @sqrt(double noundef %38) #8, !tbaa !4
  br label %40

40:                                               ; preds = %32, %31
  %41 = phi double [ 0.000000e+00, %31 ], [ %39, %32 ]
  store double %41, ptr %13, align 8, !tbaa !27
  %42 = load double, ptr %11, align 8, !tbaa !27
  %43 = fneg double %42
  %44 = load double, ptr %13, align 8, !tbaa !27
  %45 = call double @SUNRpowerR(double noundef %44, double noundef 3.000000e+00)
  %46 = fdiv double %43, %45
  %47 = load ptr, ptr %10, align 8, !tbaa !45
  %48 = getelementptr inbounds double, ptr %47, i64 2
  store double %46, ptr %48, align 8, !tbaa !27
  %49 = load double, ptr %12, align 8, !tbaa !27
  %50 = fneg double %49
  %51 = load double, ptr %13, align 8, !tbaa !27
  %52 = call double @SUNRpowerR(double noundef %51, double noundef 3.000000e+00)
  %53 = fdiv double %50, %52
  %54 = load ptr, ptr %10, align 8, !tbaa !45
  %55 = getelementptr inbounds double, ptr %54, i64 3
  store double %53, ptr %55, align 8, !tbaa !27
  call void @llvm.lifetime.end.p0(i64 8, ptr %13) #8
  call void @llvm.lifetime.end.p0(i64 8, ptr %12) #8
  call void @llvm.lifetime.end.p0(i64 8, ptr %11) #8
  call void @llvm.lifetime.end.p0(i64 8, ptr %10) #8
  call void @llvm.lifetime.end.p0(i64 8, ptr %9) #8
  ret i32 0
}